; ModuleID = '39/1471.c'
source_filename = "39/1471.c"
target datalayout = "e-m:e-p270:32:32-p271:32:32-p272:64:64-i64:64-f80:128-n8:16:32:64-S128"
target triple = "x86_64-pc-linux-gnu"

@.str = private unnamed_addr constant [3 x i8] c"%d\00", align 1
@.str.1 = private unnamed_addr constant [3 x i8] c"%s\00", align 1
@.str.2 = private unnamed_addr constant [7 x i8] c" %d %d\00", align 1
@.str.3 = private unnamed_addr constant [7 x i8] c" %c %c\00", align 1
@.str.4 = private unnamed_addr constant [4 x i8] c" %d\00", align 1
@.str.5 = private unnamed_addr constant [4 x i8] c"%s\0A\00", align 1
@.str.6 = private unnamed_addr constant [4 x i8] c"%d\0A\00", align 1

; Function Attrs: noinline nounwind uwtable
define dso_local i32 @main() #0 {
  %1 = alloca i32, align 4
  %2 = alloca i32, align 4
  %3 = alloca i32, align 4
  %4 = alloca i32, align 4
  %5 = alloca i32, align 4
  %6 = alloca [21 x i8], align 16
  %7 = alloca [21 x i8], align 16
  %8 = alloca [100 x i32], align 16
  %9 = alloca [100 x i32], align 16
  %10 = alloca [100 x i8], align 16
  %11 = alloca [100 x i8], align 16
  %12 = alloca [100 x i32], align 16
  %13 = alloca [100 x i32], align 16
  store i32 0, i32* %1, align 4
  store i32 0, i32* %5, align 4
  %14 = bitcast [100 x i32]* %8 to i8*
  call void @llvm.memset.p0i8.i64(i8* align 16 %14, i8 0, i64 400, i1 false)
  %15 = bitcast [100 x i32]* %9 to i8*
  call void @llvm.memset.p0i8.i64(i8* align 16 %15, i8 0, i64 400, i1 false)
  %16 = bitcast [100 x i32]* %12 to i8*
  call void @llvm.memset.p0i8.i64(i8* align 16 %16, i8 0, i64 400, i1 false)
  %17 = bitcast [100 x i32]* %13 to i8*
  call void @llvm.memset.p0i8.i64(i8* align 16 %17, i8 0, i64 400, i1 false)
  %18 = call i32 (i8*, ...) @__isoc99_scanf(i8* getelementptr inbounds ([3 x i8], [3 x i8]* @.str, i64 0, i64 0), i32* %2)
  store i32 1, i32* %3, align 4
  br label %19

19:                                               ; preds = %206, %0
  %20 = load i32, i32* %3, align 4
  %21 = load i32, i32* %2, align 4
  %22 = icmp sle i32 %20, %21
  br i1 %22, label %23, label %209

23:                                               ; preds = %19
  %24 = getelementptr inbounds [21 x i8], [21 x i8]* %6, i64 0, i64 0
  %25 = call i32 (i8*, ...) @__isoc99_scanf(i8* getelementptr inbounds ([3 x i8], [3 x i8]* @.str.1, i64 0, i64 0), i8* %24)
  %26 = load i32, i32* %3, align 4
  %27 = sub nsw i32 %26, 1
  %28 = sext i32 %27 to i64
  %29 = getelementptr inbounds [100 x i32], [100 x i32]* %8, i64 0, i64 %28
  %30 = load i32, i32* %3, align 4
  %31 = sub nsw i32 %30, 1
  %32 = sext i32 %31 to i64
  %33 = getelementptr inbounds [100 x i32], [100 x i32]* %9, i64 0, i64 %32
  %34 = call i32 (i8*, ...) @__isoc99_scanf(i8* getelementptr inbounds ([7 x i8], [7 x i8]* @.str.2, i64 0, i64 0), i32* %29, i32* %33)
  %35 = load i32, i32* %3, align 4
  %36 = sub nsw i32 %35, 1
  %37 = sext i32 %36 to i64
  %38 = getelementptr inbounds [100 x i8], [100 x i8]* %10, i64 0, i64 %37
  %39 = load i32, i32* %3, align 4
  %40 = sub nsw i32 %39, 1
  %41 = sext i32 %40 to i64
  %42 = getelementptr inbounds [100 x i8], [100 x i8]* %11, i64 0, i64 %41
  %43 = call i32 (i8*, ...) @__isoc99_scanf(i8* getelementptr inbounds ([7 x i8], [7 x i8]* @.str.3, i64 0, i64 0), i8* %38, i8* %42)
  %44 = load i32, i32* %3, align 4
  %45 = sub nsw i32 %44, 1
  %46 = sext i32 %45 to i64
  %47 = getelementptr inbounds [100 x i32], [100 x i32]* %12, i64 0, i64 %46
  %48 = call i32 (i8*, ...) @__isoc99_scanf(i8* getelementptr inbounds ([4 x i8], [4 x i8]* @.str.4, i64 0, i64 0), i32* %47)
  %49 = load i32, i32* %3, align 4
  %50 = sub nsw i32 %49, 1
  %51 = sext i32 %50 to i64
  %52 = getelementptr inbounds [100 x i32], [100 x i32]* %8, i64 0, i64 %51
  %53 = load i32, i32* %52, align 4
  %54 = icmp sgt i32 %53, 80
  br i1 %54, label %55, label %73

55:                                               ; preds = %23
  %56 = load i32, i32* %3, align 4
  %57 = sub nsw i32 %56, 1
  %58 = sext i32 %57 to i64
  %59 = getelementptr inbounds [100 x i32], [100 x i32]* %12, i64 0, i64 %58
  %60 = load i32, i32* %59, align 4
  %61 = icmp sge i32 %60, 1
  br i1 %61, label %62, label %73

62:                                               ; preds = %55
  %63 = load i32, i32* %3, align 4
  %64 = sub nsw i32 %63, 1
  %65 = sext i32 %64 to i64
  %66 = getelementptr inbounds [100 x i32], [100 x i32]* %13, i64 0, i64 %65
  %67 = load i32, i32* %66, align 4
  %68 = add nsw i32 %67, 8000
  %69 = load i32, i32* %3, align 4
  %70 = sub nsw i32 %69, 1
  %71 = sext i32 %70 to i64
  %72 = getelementptr inbounds [100 x i32], [100 x i32]* %13, i64 0, i64 %71
  store i32 %68, i32* %72, align 4
  br label %73

73:                                               ; preds = %62, %55, %23
  %74 = load i32, i32* %3, align 4
  %75 = sub nsw i32 %74, 1
  %76 = sext i32 %75 to i64
  %77 = getelementptr inbounds [100 x i32], [100 x i32]* %8, i64 0, i64 %76
  %78 = load i32, i32* %77, align 4
  %79 = icmp sgt i32 %78, 85
  br i1 %79, label %80, label %98

80:                                               ; preds = %73
  %81 = load i32, i32* %3, align 4
  %82 = sub nsw i32 %81, 1
  %83 = sext i32 %82 to i64
  %84 = getelementptr inbounds [100 x i32], [100 x i32]* %9, i64 0, i64 %83
  %85 = load i32, i32* %84, align 4
  %86 = icmp sgt i32 %85, 80
  br i1 %86, label %87, label %98

87:                                               ; preds = %80
  %88 = load i32, i32* %3, align 4
  %89 = sub nsw i32 %88, 1
  %90 = sext i32 %89 to i64
  %91 = getelementptr inbounds [100 x i32], [100 x i32]* %13, i64 0, i64 %90
  %92 = load i32, i32* %91, align 4
  %93 = add nsw i32 %92, 4000
  %94 = load i32, i32* %3, align 4
  %95 = sub nsw i32 %94, 1
  %96 = sext i32 %95 to i64
  %97 = getelementptr inbounds [100 x i32], [100 x i32]* %13, i64 0, i64 %96
  store i32 %93, i32* %97, align 4
  br label %98

98:                                               ; preds = %87, %80, %73
  %99 = load i32, i32* %3, align 4
  %100 = sub nsw i32 %99, 1
  %101 = sext i32 %100 to i64
  %102 = getelementptr inbounds [100 x i32], [100 x i32]* %8, i64 0, i64 %101
  %103 = load i32, i32* %102, align 4
  %104 = icmp sgt i32 %103, 90
  br i1 %104, label %105, label %116

105:                                              ; preds = %98
  %106 = load i32, i32* %3, align 4
  %107 = sub nsw i32 %106, 1
  %108 = sext i32 %107 to i64
  %109 = getelementptr inbounds [100 x i32], [100 x i32]* %13, i64 0, i64 %108
  %110 = load i32, i32* %109, align 4
  %111 = add nsw i32 %110, 2000
  %112 = load i32, i32* %3, align 4
  %113 = sub nsw i32 %112, 1
  %114 = sext i32 %113 to i64
  %115 = getelementptr inbounds [100 x i32], [100 x i32]* %13, i64 0, i64 %114
  store i32 %111, i32* %115, align 4
  br label %116

116:                                              ; preds = %105, %98
  %117 = load i32, i32* %3, align 4
  %118 = sub nsw i32 %117, 1
  %119 = sext i32 %118 to i64
  %120 = getelementptr inbounds [100 x i32], [100 x i32]* %8, i64 0, i64 %119
  %121 = load i32, i32* %120, align 4
  %122 = icmp sgt i32 %121, 85
  br i1 %122, label %123, label %142

123:                                              ; preds = %116
  %124 = load i32, i32* %3, align 4
  %125 = sub nsw i32 %124, 1
  %126 = sext i32 %125 to i64
  %127 = getelementptr inbounds [100 x i8], [100 x i8]* %11, i64 0, i64 %126
  %128 = load i8, i8* %127, align 1
  %129 = sext i8 %128 to i32
  %130 = icmp eq i32 %129, 89
  br i1 %130, label %131, label %142

131:                                              ; preds = %123
  %132 = load i32, i32* %3, align 4
  %133 = sub nsw i32 %132, 1
  %134 = sext i32 %133 to i64
  %135 = getelementptr inbounds [100 x i32], [100 x i32]* %13, i64 0, i64 %134
  %136 = load i32, i32* %135, align 4
  %137 = add nsw i32 %136, 1000
  %138 = load i32, i32* %3, align 4
  %139 = sub nsw i32 %138, 1
  %140 = sext i32 %139 to i64
  %141 = getelementptr inbounds [100 x i32], [100 x i32]* %13, i64 0, i64 %140
  store i32 %137, i32* %141, align 4
  br label %142

142:                                              ; preds = %131, %123, %116
  %143 = load i32, i32* %3, align 4
  %144 = sub nsw i32 %143, 1
  %145 = sext i32 %144 to i64
  %146 = getelementptr inbounds [100 x i32], [100 x i32]* %9, i64 0, i64 %145
  %147 = load i32, i32* %146, align 4
  %148 = icmp sgt i32 %147, 80
  br i1 %148, label %149, label %168

149:                                              ; preds = %142
  %150 = load i32, i32* %3, align 4
  %151 = sub nsw i32 %150, 1
  %152 = sext i32 %151 to i64
  %153 = getelementptr inbounds [100 x i8], [100 x i8]* %10, i64 0, i64 %152
  %154 = load i8, i8* %153, align 1
  %155 = sext i8 %154 to i32
  %156 = icmp eq i32 %155, 89
  br i1 %156, label %157, label %168

157:                                              ; preds = %149
  %158 = load i32, i32* %3, align 4
  %159 = sub nsw i32 %158, 1
  %160 = sext i32 %159 to i64
  %161 = getelementptr inbounds [100 x i32], [100 x i32]* %13, i64 0, i64 %160
  %162 = load i32, i32* %161, align 4
  %163 = add nsw i32 %162, 850
  %164 = load i32, i32* %3, align 4
  %165 = sub nsw i32 %164, 1
  %166 = sext i32 %165 to i64
  %167 = getelementptr inbounds [100 x i32], [100 x i32]* %13, i64 0, i64 %166
  store i32 %163, i32* %167, align 4
  br label %168

168:                                              ; preds = %157, %149, %142
  %169 = load i32, i32* %3, align 4
  %170 = icmp eq i32 %169, 1
  br i1 %170, label %171, label %177

171:                                              ; preds = %168
  %172 = getelementptr inbounds [100 x i32], [100 x i32]* %13, i64 0, i64 0
  %173 = load i32, i32* %172, align 16
  store i32 %173, i32* %4, align 4
  %174 = getelementptr inbounds [21 x i8], [21 x i8]* %7, i64 0, i64 0
  %175 = getelementptr inbounds [21 x i8], [21 x i8]* %6, i64 0, i64 0
  %176 = call i8* @strcpy(i8* %174, i8* %175) #4
  br label %177

177:                                              ; preds = %171, %168
  %178 = load i32, i32* %5, align 4
  %179 = load i32, i32* %3, align 4
  %180 = sub nsw i32 %179, 1
  %181 = sext i32 %180 to i64
  %182 = getelementptr inbounds [100 x i32], [100 x i32]* %13, i64 0, i64 %181
  %183 = load i32, i32* %182, align 4
  %184 = add nsw i32 %178, %183
  store i32 %184, i32* %5, align 4
  %185 = load i32, i32* %3, align 4
  %186 = icmp sge i32 %185, 2
  br i1 %186, label %187, label %205

187:                                              ; preds = %177
  %188 = load i32, i32* %3, align 4
  %189 = sub nsw i32 %188, 1
  %190 = sext i32 %189 to i64
  %191 = getelementptr inbounds [100 x i32], [100 x i32]* %13, i64 0, i64 %190
  %192 = load i32, i32* %191, align 4
  %193 = load i32, i32* %4, align 4
  %194 = icmp sgt i32 %192, %193
  br i1 %194, label %195, label %204

195:                                              ; preds = %187
  %196 = load i32, i32* %3, align 4
  %197 = sub nsw i32 %196, 1
  %198 = sext i32 %197 to i64
  %199 = getelementptr inbounds [100 x i32], [100 x i32]* %13, i64 0, i64 %198
  %200 = load i32, i32* %199, align 4
  store i32 %200, i32* %4, align 4
  %201 = getelementptr inbounds [21 x i8], [21 x i8]* %7, i64 0, i64 0
  %202 = getelementptr inbounds [21 x i8], [21 x i8]* %6, i64 0, i64 0
  %203 = call i8* @strcpy(i8* %201, i8* %202) #4
  br label %204

204:                                              ; preds = %195, %187
  br label %205

205:                                              ; preds = %204, %177
  br label %206

206:                                              ; preds = %205
  %207 = load i32, i32* %3, align 4
  %208 = add nsw i32 %207, 1
  store i32 %208, i32* %3, align 4
  br label %19

209:                                              ; preds = %19
  %210 = getelementptr inbounds [21 x i8], [21 x i8]* %7, i64 0, i64 0
  %211 = call i32 (i8*, ...) @printf(i8* getelementptr inbounds ([4 x i8], [4 x i8]* @.str.5, i64 0, i64 0), i8* %210)
  %212 = load i32, i32* %4, align 4
  %213 = call i32 (i8*, ...) @printf(i8* getelementptr inbounds ([4 x i8], [4 x i8]* @.str.6, i64 0, i64 0), i32 %212)
  %214 = load i32, i32* %5, align 4
  %215 = call i32 (i8*, ...) @printf(i8* getelementptr inbounds ([4 x i8], [4 x i8]* @.str.6, i64 0, i64 0), i32 %214)
  ret i32 0
}

; Function Attrs: argmemonly nounwind willreturn
declare void @llvm.memset.p0i8.i64(i8* nocapture writeonly, i8, i64, i1 immarg) #1

declare dso_local i32 @__isoc99_scanf(i8*, ...) #2

; Function Attrs: nounwind
declare dso_local i8* @strcpy(i8*, i8*) #3

declare dso_local i32 @printf(i8*, ...) #2


!llvm.module.flags = !{!0}
!llvm.ident = !{!1}

!0 = !{i32 1, !"wchar_size", i32 4}
!1 = !{!"clang version 10.0.0-4ubuntu1 "}
